target datalayout = "e-m:e-p270:32:32-p271:32:32-p272:64:64-i64:64-i128:128-f80:128-n8:16:32:64-S128"
target triple = "x86_64-pc-linux-gnu"

%struct._object = type { %union.anon, ptr }
%union.anon = type { i64 }
%struct.anon = type { i32, i32 }
%struct.Py_buffer = type { ptr, ptr, i64, i64, i32, i32, ptr, ptr, ptr, ptr, ptr }
%struct.UnpicklerObject = type { %struct._object, ptr, ptr, i64, i64, ptr, ptr, %struct.Py_buffer, ptr, ptr, i64, i64, i64, ptr, ptr, ptr, ptr, ptr, ptr, ptr, ptr, i64, i64, i32, i32 }

; Function Attrs: inlinehint nounwind uwtable
define internal void @Py_XDECREF(ptr noundef %0) #3 {
  %2 = alloca ptr, align 8
  store ptr %0, ptr %2, align 8, !tbaa !3
  %3 = load ptr, ptr %2, align 8, !tbaa !3
  %4 = icmp ne ptr %3, null
  br i1 %4, label %5, label %7

5:                                                ; preds = %1
  %6 = load ptr, ptr %2, align 8, !tbaa !3
  call void @Py_DECREF(ptr noundef %6)
  br label %7

7:                                                ; preds = %5, %1
  ret void
}

; Function Attrs: alwaysinline nounwind uwtable
define internal i32 @_Py_IsImmortal(ptr noundef %0) #4 {
  %2 = alloca ptr, align 8
  store ptr %0, ptr %2, align 8, !tbaa !3
  %3 = load ptr, ptr %2, align 8, !tbaa !3
  %4 = getelementptr inbounds nuw %struct._object, ptr %3, i32 0, i32 0
  %5 = getelementptr inbounds nuw %struct.anon, ptr %4, i32 0, i32 0
  %6 = load i32, ptr %5, align 8, !tbaa !63
  %7 = icmp slt i32 %6, 0
  %8 = zext i1 %7 to i32
  ret i32 %8
}

; Function Attrs: nounwind uwtable
define internal void @_Unpickler_MemoCleanup(ptr noundef %0) #0 {
  %2 = alloca ptr, align 8
  %3 = alloca i64, align 8
  %4 = alloca ptr, align 8
  %5 = alloca i32, align 4
  store ptr %0, ptr %2, align 8, !tbaa !156
  call void @llvm.lifetime.start.p0(i64 8, ptr %3) #10
  call void @llvm.lifetime.start.p0(i64 8, ptr %4) #10
  %6 = load ptr, ptr %2, align 8, !tbaa !156
  %7 = getelementptr inbounds nuw %struct.UnpicklerObject, ptr %6, i32 0, i32 2
  %8 = load ptr, ptr %7, align 8, !tbaa !161
  store ptr %8, ptr %4, align 8, !tbaa !32
  %9 = load ptr, ptr %2, align 8, !tbaa !156
  %10 = getelementptr inbounds nuw %struct.UnpicklerObject, ptr %9, i32 0, i32 2
  %11 = load ptr, ptr %10, align 8, !tbaa !161
  %12 = icmp eq ptr %11, null
  br i1 %12, label %13, label %14

13:                                               ; preds = %1
  store i32 1, ptr %5, align 4
  br label %31

14:                                               ; preds = %1
  %15 = load ptr, ptr %2, align 8, !tbaa !156
  %16 = getelementptr inbounds nuw %struct.UnpicklerObject, ptr %15, i32 0, i32 2
  store ptr null, ptr %16, align 8, !tbaa !161
  %17 = load ptr, ptr %2, align 8, !tbaa !156
  %18 = getelementptr inbounds nuw %struct.UnpicklerObject, ptr %17, i32 0, i32 3
  %19 = load i64, ptr %18, align 8, !tbaa !162
  store i64 %19, ptr %3, align 8, !tbaa !34
  br label %20

20:                                               ; preds = %24, %14
  %21 = load i64, ptr %3, align 8, !tbaa !34
  %22 = add i64 %21, -1
  store i64 %22, ptr %3, align 8, !tbaa !34
  %23 = icmp sge i64 %22, 0
  br i1 %23, label %24, label %29

24:                                               ; preds = %20
  %25 = load ptr, ptr %4, align 8, !tbaa !32
  %26 = load i64, ptr %3, align 8, !tbaa !34
  %27 = getelementptr ptr, ptr %25, i64 %26
  %28 = load ptr, ptr %27, align 8, !tbaa !3
  call void @Py_XDECREF(ptr noundef %28)
  br label %20, !llvm.loop !221

29:                                               ; preds = %20
  %30 = load ptr, ptr %4, align 8, !tbaa !32
  call void @PyMem_Free(ptr noundef %30)
  store i32 0, ptr %5, align 4
  br label %31

31:                                               ; preds = %29, %13
  call void @llvm.lifetime.end.p0(i64 8, ptr %4) #10
  call void @llvm.lifetime.end.p0(i64 8, ptr %3) #10
  %32 = load i32, ptr %5, align 4
  switch i32 %32, label %34 [
    i32 0, label %33
    i32 1, label %33
  ]

33:                                               ; preds = %31, %31
  ret void

34:                                               ; preds = %31
  unreachable
}

; Function Attrs: alwaysinline nounwind uwtable
define internal void @Py_DECREF(ptr noundef %0) #4 {
  %2 = alloca ptr, align 8
  store ptr %0, ptr %2, align 8, !tbaa !3
  %3 = load ptr, ptr %2, align 8, !tbaa !3
  %4 = call i32 @_Py_IsImmortal(ptr noundef %3)
  %5 = icmp ne i32 %4, 0
  br i1 %5, label %6, label %7

6:                                                ; preds = %1
  br label %16

7:                                                ; preds = %1
  %8 = load ptr, ptr %2, align 8, !tbaa !3
  %9 = getelementptr inbounds nuw %struct._object, ptr %8, i32 0, i32 0
  %10 = getelementptr inbounds nuw %struct.anon, ptr %9, i32 0, i32 0
  %11 = load i32, ptr %10, align 8, !tbaa !63
  %12 = add i32 %11, -1
  store i32 %12, ptr %10, align 8, !tbaa !63
  %13 = icmp eq i32 %12, 0
  br i1 %13, label %14, label %16

14:                                               ; preds = %7
  %15 = load ptr, ptr %2, align 8, !tbaa !3
  call void @_Py_Dealloc(ptr noundef %15)
  br label %16

16:                                               ; preds = %6, %14, %7
  ret void
}

; Function Attrs: nounwind uwtable
define internal i32 @Unpickler_clear(ptr noundef %0) #0 {
  %2 = alloca ptr, align 8
  %3 = alloca ptr, align 8
  %4 = alloca ptr, align 8
  %5 = alloca ptr, align 8
  %6 = alloca ptr, align 8
  %7 = alloca ptr, align 8
  %8 = alloca ptr, align 8
  %9 = alloca ptr, align 8
  %10 = alloca ptr, align 8
  %11 = alloca ptr, align 8
  %12 = alloca ptr, align 8
  %13 = alloca ptr, align 8
  %14 = alloca ptr, align 8
  %15 = alloca ptr, align 8
  %16 = alloca ptr, align 8
  store ptr %0, ptr %2, align 8, !tbaa !156
  br label %17

17:                                               ; preds = %1
  call void @llvm.lifetime.start.p0(i64 8, ptr %3) #10
  %18 = load ptr, ptr %2, align 8, !tbaa !156
  %19 = getelementptr inbounds nuw %struct.UnpicklerObject, ptr %18, i32 0, i32 15
  store ptr %19, ptr %3, align 8, !tbaa !32
  call void @llvm.lifetime.start.p0(i64 8, ptr %4) #10
  %20 = load ptr, ptr %3, align 8, !tbaa !32
  %21 = load ptr, ptr %20, align 8, !tbaa !3
  store ptr %21, ptr %4, align 8, !tbaa !3
  %22 = load ptr, ptr %4, align 8, !tbaa !3
  %23 = icmp ne ptr %22, null
  br i1 %23, label %24, label %27

24:                                               ; preds = %17
  %25 = load ptr, ptr %3, align 8, !tbaa !32
  store ptr null, ptr %25, align 8, !tbaa !3
  %26 = load ptr, ptr %4, align 8, !tbaa !3
  call void @Py_DECREF(ptr noundef %26)
  br label %27

27:                                               ; preds = %24, %17
  call void @llvm.lifetime.end.p0(i64 8, ptr %4) #10
  call void @llvm.lifetime.end.p0(i64 8, ptr %3) #10
  br label %28

28:                                               ; preds = %27
  br label %29

29:                                               ; preds = %28
  call void @llvm.lifetime.start.p0(i64 8, ptr %5) #10
  %30 = load ptr, ptr %2, align 8, !tbaa !156
  %31 = getelementptr inbounds nuw %struct.UnpicklerObject, ptr %30, i32 0, i32 14
  store ptr %31, ptr %5, align 8, !tbaa !32
  call void @llvm.lifetime.start.p0(i64 8, ptr %6) #10
  %32 = load ptr, ptr %5, align 8, !tbaa !32
  %33 = load ptr, ptr %32, align 8, !tbaa !3
  store ptr %33, ptr %6, align 8, !tbaa !3
  %34 = load ptr, ptr %6, align 8, !tbaa !3
  %35 = icmp ne ptr %34, null
  br i1 %35, label %36, label %39

36:                                               ; preds = %29
  %37 = load ptr, ptr %5, align 8, !tbaa !32
  store ptr null, ptr %37, align 8, !tbaa !3
  %38 = load ptr, ptr %6, align 8, !tbaa !3
  call void @Py_DECREF(ptr noundef %38)
  br label %39

39:                                               ; preds = %36, %29
  call void @llvm.lifetime.end.p0(i64 8, ptr %6) #10
  call void @llvm.lifetime.end.p0(i64 8, ptr %5) #10
  br label %40

40:                                               ; preds = %39
  br label %41

41:                                               ; preds = %40
  call void @llvm.lifetime.start.p0(i64 8, ptr %7) #10
  %42 = load ptr, ptr %2, align 8, !tbaa !156
  %43 = getelementptr inbounds nuw %struct.UnpicklerObject, ptr %42, i32 0, i32 13
  store ptr %43, ptr %7, align 8, !tbaa !32
  call void @llvm.lifetime.start.p0(i64 8, ptr %8) #10
  %44 = load ptr, ptr %7, align 8, !tbaa !32
  %45 = load ptr, ptr %44, align 8, !tbaa !3
  store ptr %45, ptr %8, align 8, !tbaa !3
  %46 = load ptr, ptr %8, align 8, !tbaa !3
  %47 = icmp ne ptr %46, null
  br i1 %47, label %48, label %51

48:                                               ; preds = %41
  %49 = load ptr, ptr %7, align 8, !tbaa !32
  store ptr null, ptr %49, align 8, !tbaa !3
  %50 = load ptr, ptr %8, align 8, !tbaa !3
  call void @Py_DECREF(ptr noundef %50)
  br label %51

51:                                               ; preds = %48, %41
  call void @llvm.lifetime.end.p0(i64 8, ptr %8) #10
  call void @llvm.lifetime.end.p0(i64 8, ptr %7) #10
  br label %52

52:                                               ; preds = %51
  br label %53

53:                                               ; preds = %52
  call void @llvm.lifetime.start.p0(i64 8, ptr %9) #10
  %54 = load ptr, ptr %2, align 8, !tbaa !156
  %55 = getelementptr inbounds nuw %struct.UnpicklerObject, ptr %54, i32 0, i32 16
  store ptr %55, ptr %9, align 8, !tbaa !32
  call void @llvm.lifetime.start.p0(i64 8, ptr %10) #10
  %56 = load ptr, ptr %9, align 8, !tbaa !32
  %57 = load ptr, ptr %56, align 8, !tbaa !3
  store ptr %57, ptr %10, align 8, !tbaa !3
  %58 = load ptr, ptr %10, align 8, !tbaa !3
  %59 = icmp ne ptr %58, null
  br i1 %59, label %60, label %63

60:                                               ; preds = %53
  %61 = load ptr, ptr %9, align 8, !tbaa !32
  store ptr null, ptr %61, align 8, !tbaa !3
  %62 = load ptr, ptr %10, align 8, !tbaa !3
  call void @Py_DECREF(ptr noundef %62)
  br label %63

63:                                               ; preds = %60, %53
  call void @llvm.lifetime.end.p0(i64 8, ptr %10) #10
  call void @llvm.lifetime.end.p0(i64 8, ptr %9) #10
  br label %64

64:                                               ; preds = %63
  br label %65

65:                                               ; preds = %64
  call void @llvm.lifetime.start.p0(i64 8, ptr %11) #10
  %66 = load ptr, ptr %2, align 8, !tbaa !156
  %67 = getelementptr inbounds nuw %struct.UnpicklerObject, ptr %66, i32 0, i32 1
  store ptr %67, ptr %11, align 8, !tbaa !8
  call void @llvm.lifetime.start.p0(i64 8, ptr %12) #10
  %68 = load ptr, ptr %11, align 8, !tbaa !8
  %69 = load ptr, ptr %68, align 8, !tbaa !8
  store ptr %69, ptr %12, align 8, !tbaa !8
  %70 = load ptr, ptr %12, align 8, !tbaa !8
  %71 = icmp ne ptr %70, null
  br i1 %71, label %72, label %75

72:                                               ; preds = %65
  %73 = load ptr, ptr %11, align 8, !tbaa !8
  store ptr null, ptr %73, align 8, !tbaa !8
  %74 = load ptr, ptr %12, align 8, !tbaa !8
  call void @Py_DECREF(ptr noundef %74)
  br label %75

75:                                               ; preds = %72, %65
  call void @llvm.lifetime.end.p0(i64 8, ptr %12) #10
  call void @llvm.lifetime.end.p0(i64 8, ptr %11) #10
  br label %76

76:                                               ; preds = %75
  br label %77

77:                                               ; preds = %76
  call void @llvm.lifetime.start.p0(i64 8, ptr %13) #10
  %78 = load ptr, ptr %2, align 8, !tbaa !156
  %79 = getelementptr inbounds nuw %struct.UnpicklerObject, ptr %78, i32 0, i32 5
  store ptr %79, ptr %13, align 8, !tbaa !32
  call void @llvm.lifetime.start.p0(i64 8, ptr %14) #10
  %80 = load ptr, ptr %13, align 8, !tbaa !32
  %81 = load ptr, ptr %80, align 8, !tbaa !3
  store ptr %81, ptr %14, align 8, !tbaa !3
  %82 = load ptr, ptr %14, align 8, !tbaa !3
  %83 = icmp ne ptr %82, null
  br i1 %83, label %84, label %87

84:                                               ; preds = %77
  %85 = load ptr, ptr %13, align 8, !tbaa !32
  store ptr null, ptr %85, align 8, !tbaa !3
  %86 = load ptr, ptr %14, align 8, !tbaa !3
  call void @Py_DECREF(ptr noundef %86)
  br label %87

87:                                               ; preds = %84, %77
  call void @llvm.lifetime.end.p0(i64 8, ptr %14) #10
  call void @llvm.lifetime.end.p0(i64 8, ptr %13) #10
  br label %88

88:                                               ; preds = %87
  br label %89

89:                                               ; preds = %88
  call void @llvm.lifetime.start.p0(i64 8, ptr %15) #10
  %90 = load ptr, ptr %2, align 8, !tbaa !156
  %91 = getelementptr inbounds nuw %struct.UnpicklerObject, ptr %90, i32 0, i32 17
  store ptr %91, ptr %15, align 8, !tbaa !32
  call void @llvm.lifetime.start.p0(i64 8, ptr %16) #10
  %92 = load ptr, ptr %15, align 8, !tbaa !32
  %93 = load ptr, ptr %92, align 8, !tbaa !3
  store ptr %93, ptr %16, align 8, !tbaa !3
  %94 = load ptr, ptr %16, align 8, !tbaa !3
  %95 = icmp ne ptr %94, null
  br i1 %95, label %96, label %99

96:                                               ; preds = %89
  %97 = load ptr, ptr %15, align 8, !tbaa !32
  store ptr null, ptr %97, align 8, !tbaa !3
  %98 = load ptr, ptr %16, align 8, !tbaa !3
  call void @Py_DECREF(ptr noundef %98)
  br label %99

99:                                               ; preds = %96, %89
  call void @llvm.lifetime.end.p0(i64 8, ptr %16) #10
  call void @llvm.lifetime.end.p0(i64 8, ptr %15) #10
  br label %100

100:                                              ; preds = %99
  %101 = load ptr, ptr %2, align 8, !tbaa !156
  %102 = getelementptr inbounds nuw %struct.UnpicklerObject, ptr %101, i32 0, i32 7
  %103 = getelementptr inbounds nuw %struct.Py_buffer, ptr %102, i32 0, i32 0
  %104 = load ptr, ptr %103, align 8, !tbaa !196
  %105 = icmp ne ptr %104, null
  br i1 %105, label %106, label %112

106:                                              ; preds = %100
  %107 = load ptr, ptr %2, align 8, !tbaa !156
  %108 = getelementptr inbounds nuw %struct.UnpicklerObject, ptr %107, i32 0, i32 7
  call void @PyBuffer_Release(ptr noundef %108)
  %109 = load ptr, ptr %2, align 8, !tbaa !156
  %110 = getelementptr inbounds nuw %struct.UnpicklerObject, ptr %109, i32 0, i32 7
  %111 = getelementptr inbounds nuw %struct.Py_buffer, ptr %110, i32 0, i32 0
  store ptr null, ptr %111, align 8, !tbaa !196
  br label %112

112:                                              ; preds = %106, %100
  %113 = load ptr, ptr %2, align 8, !tbaa !156
  call void @_Unpickler_MemoCleanup(ptr noundef %113)
  %114 = load ptr, ptr %2, align 8, !tbaa !156
  %115 = getelementptr inbounds nuw %struct.UnpicklerObject, ptr %114, i32 0, i32 20
  %116 = load ptr, ptr %115, align 8, !tbaa !178
  call void @PyMem_Free(ptr noundef %116)
  %117 = load ptr, ptr %2, align 8, !tbaa !156
  %118 = getelementptr inbounds nuw %struct.UnpicklerObject, ptr %117, i32 0, i32 20
  store ptr null, ptr %118, align 8, !tbaa !178
  %119 = load ptr, ptr %2, align 8, !tbaa !156
  %120 = getelementptr inbounds nuw %struct.UnpicklerObject, ptr %119, i32 0, i32 9
  %121 = load ptr, ptr %120, align 8, !tbaa !167
  call void @PyMem_Free(ptr noundef %121)
  %122 = load ptr, ptr %2, align 8, !tbaa !156
  %123 = getelementptr inbounds nuw %struct.UnpicklerObject, ptr %122, i32 0, i32 9
  store ptr null, ptr %123, align 8, !tbaa !167
  %124 = load ptr, ptr %2, align 8, !tbaa !156
  %125 = getelementptr inbounds nuw %struct.UnpicklerObject, ptr %124, i32 0, i32 18
  %126 = load ptr, ptr %125, align 8, !tbaa !176
  call void @PyMem_Free(ptr noundef %126)
  %127 = load ptr, ptr %2, align 8, !tbaa !156
  %128 = getelementptr inbounds nuw %struct.UnpicklerObject, ptr %127, i32 0, i32 18
  store ptr null, ptr %128, align 8, !tbaa !176
  %129 = load ptr, ptr %2, align 8, !tbaa !156
  %130 = getelementptr inbounds nuw %struct.UnpicklerObject, ptr %129, i32 0, i32 19
  %131 = load ptr, ptr %130, align 8, !tbaa !177
  call void @PyMem_Free(ptr noundef %131)
  %132 = load ptr, ptr %2, align 8, !tbaa !156
  %133 = getelementptr inbounds nuw %struct.UnpicklerObject, ptr %132, i32 0, i32 19
  store ptr null, ptr %133, align 8, !tbaa !177
  ret i32 0
}