; Function Attrs: nounwind uwtable
define internal noundef i32 @Unpickler_clear(ptr noundef %0) #0 {
  %2 = getelementptr inbounds nuw i8, ptr %0, i64 200
  %3 = load ptr, ptr %2, align 8, !tbaa !35
  %.not = icmp eq ptr %3, null
  br i1 %.not, label %Py_DECREF.exit71, label %4

4:                                                ; preds = %1
  store ptr null, ptr %2, align 8, !tbaa !35
  %5 = load i32, ptr %3, align 8, !tbaa !42
  %.not.i70 = icmp sgt i32 %5, -1
  br i1 %.not.i70, label %6, label %Py_DECREF.exit71

6:                                                ; preds = %4
  %7 = add nsw i32 %5, -1
  store i32 %7, ptr %3, align 8, !tbaa !42
  %8 = icmp eq i32 %7, 0
  br i1 %8, label %9, label %Py_DECREF.exit71

9:                                                ; preds = %6
  tail call void @_Py_Dealloc(ptr noundef nonnull %3) #13
  br label %Py_DECREF.exit71

Py_DECREF.exit71:                                 ; preds = %9, %6, %4, %1
  %10 = getelementptr inbounds nuw i8, ptr %0, i64 192
  %11 = load ptr, ptr %10, align 8, !tbaa !35
  %.not53 = icmp eq ptr %11, null
  br i1 %.not53, label %Py_DECREF.exit69, label %12

12:                                               ; preds = %Py_DECREF.exit71
  store ptr null, ptr %10, align 8, !tbaa !35
  %13 = load i32, ptr %11, align 8, !tbaa !42
  %.not.i68 = icmp sgt i32 %13, -1
  br i1 %.not.i68, label %14, label %Py_DECREF.exit69

14:                                               ; preds = %12
  %15 = add nsw i32 %13, -1
  store i32 %15, ptr %11, align 8, !tbaa !42
  %16 = icmp eq i32 %15, 0
  br i1 %16, label %17, label %Py_DECREF.exit69

17:                                               ; preds = %14
  tail call void @_Py_Dealloc(ptr noundef nonnull %11) #13
  br label %Py_DECREF.exit69

Py_DECREF.exit69:                                 ; preds = %17, %14, %12, %Py_DECREF.exit71
  %18 = getelementptr inbounds nuw i8, ptr %0, i64 184
  %19 = load ptr, ptr %18, align 8, !tbaa !35
  %.not54 = icmp eq ptr %19, null
  br i1 %.not54, label %Py_DECREF.exit67, label %20

20:                                               ; preds = %Py_DECREF.exit69
  store ptr null, ptr %18, align 8, !tbaa !35
  %21 = load i32, ptr %19, align 8, !tbaa !42
  %.not.i66 = icmp sgt i32 %21, -1
  br i1 %.not.i66, label %22, label %Py_DECREF.exit67

22:                                               ; preds = %20
  %23 = add nsw i32 %21, -1
  store i32 %23, ptr %19, align 8, !tbaa !42
  %24 = icmp eq i32 %23, 0
  br i1 %24, label %25, label %Py_DECREF.exit67

25:                                               ; preds = %22
  tail call void @_Py_Dealloc(ptr noundef nonnull %19) #13
  br label %Py_DECREF.exit67

Py_DECREF.exit67:                                 ; preds = %25, %22, %20, %Py_DECREF.exit69
  %26 = getelementptr inbounds nuw i8, ptr %0, i64 208
  %27 = load ptr, ptr %26, align 8, !tbaa !35
  %.not55 = icmp eq ptr %27, null
  br i1 %.not55, label %Py_DECREF.exit65, label %28

28:                                               ; preds = %Py_DECREF.exit67
  store ptr null, ptr %26, align 8, !tbaa !35
  %29 = load i32, ptr %27, align 8, !tbaa !42
  %.not.i64 = icmp sgt i32 %29, -1
  br i1 %.not.i64, label %30, label %Py_DECREF.exit65

30:                                               ; preds = %28
  %31 = add nsw i32 %29, -1
  store i32 %31, ptr %27, align 8, !tbaa !42
  %32 = icmp eq i32 %31, 0
  br i1 %32, label %33, label %Py_DECREF.exit65

33:                                               ; preds = %30
  tail call void @_Py_Dealloc(ptr noundef nonnull %27) #13
  br label %Py_DECREF.exit65

Py_DECREF.exit65:                                 ; preds = %33, %30, %28, %Py_DECREF.exit67
  %34 = getelementptr inbounds nuw i8, ptr %0, i64 16
  %35 = load ptr, ptr %34, align 8, !tbaa !217
  %.not56 = icmp eq ptr %35, null
  br i1 %.not56, label %Py_DECREF.exit63, label %36

36:                                               ; preds = %Py_DECREF.exit65
  store ptr null, ptr %34, align 8, !tbaa !217
  %37 = load i32, ptr %35, align 8, !tbaa !42
  %.not.i62 = icmp sgt i32 %37, -1
  br i1 %.not.i62, label %38, label %Py_DECREF.exit63

38:                                               ; preds = %36
  %39 = add nsw i32 %37, -1
  store i32 %39, ptr %35, align 8, !tbaa !42
  %40 = icmp eq i32 %39, 0
  br i1 %40, label %41, label %Py_DECREF.exit63

41:                                               ; preds = %38
  tail call void @_Py_Dealloc(ptr noundef nonnull %35) #13
  br label %Py_DECREF.exit63

Py_DECREF.exit63:                                 ; preds = %41, %38, %36, %Py_DECREF.exit65
  %42 = getelementptr inbounds nuw i8, ptr %0, i64 48
  %43 = load ptr, ptr %42, align 8, !tbaa !35
  %.not57 = icmp eq ptr %43, null
  br i1 %.not57, label %Py_DECREF.exit61, label %44

44:                                               ; preds = %Py_DECREF.exit63
  store ptr null, ptr %42, align 8, !tbaa !35
  %45 = load i32, ptr %43, align 8, !tbaa !42
  %.not.i60 = icmp sgt i32 %45, -1
  br i1 %.not.i60, label %46, label %Py_DECREF.exit61

46:                                               ; preds = %44
  %47 = add nsw i32 %45, -1
  store i32 %47, ptr %43, align 8, !tbaa !42
  %48 = icmp eq i32 %47, 0
  br i1 %48, label %49, label %Py_DECREF.exit61

49:                                               ; preds = %46
  tail call void @_Py_Dealloc(ptr noundef nonnull %43) #13
  br label %Py_DECREF.exit61

Py_DECREF.exit61:                                 ; preds = %49, %46, %44, %Py_DECREF.exit63
  %50 = getelementptr inbounds nuw i8, ptr %0, i64 216
  %51 = load ptr, ptr %50, align 8, !tbaa !35
  %.not58 = icmp eq ptr %51, null
  br i1 %.not58, label %Py_DECREF.exit, label %52

52:                                               ; preds = %Py_DECREF.exit61
  store ptr null, ptr %50, align 8, !tbaa !35
  %53 = load i32, ptr %51, align 8, !tbaa !42
  %.not.i = icmp sgt i32 %53, -1
  br i1 %.not.i, label %54, label %Py_DECREF.exit

54:                                               ; preds = %52
  %55 = add nsw i32 %53, -1
  store i32 %55, ptr %51, align 8, !tbaa !42
  %56 = icmp eq i32 %55, 0
  br i1 %56, label %57, label %Py_DECREF.exit

57:                                               ; preds = %54
  tail call void @_Py_Dealloc(ptr noundef nonnull %51) #13
  br label %Py_DECREF.exit

Py_DECREF.exit:                                   ; preds = %57, %54, %52, %Py_DECREF.exit61
  %58 = getelementptr inbounds nuw i8, ptr %0, i64 64
  %59 = load ptr, ptr %58, align 8, !tbaa !67
  %.not59 = icmp eq ptr %59, null
  br i1 %.not59, label %61, label %60

60:                                               ; preds = %Py_DECREF.exit
  tail call void @PyBuffer_Release(ptr noundef nonnull %58) #13
  store ptr null, ptr %58, align 8, !tbaa !67
  br label %61

61:                                               ; preds = %60, %Py_DECREF.exit
  %62 = getelementptr inbounds nuw i8, ptr %0, i64 24
  %63 = load ptr, ptr %62, align 8, !tbaa !161
  %64 = icmp eq ptr %63, null
  br i1 %64, label %_Unpickler_MemoCleanup.exit, label %65

65:                                               ; preds = %61
  store ptr null, ptr %62, align 8, !tbaa !161
  %66 = getelementptr inbounds nuw i8, ptr %0, i64 32
  %67 = load i64, ptr %66, align 8, !tbaa !162
  %68 = add i64 %67, -1
  %69 = icmp sgt i64 %68, -1
  br i1 %69, label %.lr.ph.i, label %._crit_edge.i

.lr.ph.i:                                         ; preds = %65, %Py_XDECREF.exit.i
  %70 = phi i64 [ %79, %Py_XDECREF.exit.i ], [ %68, %65 ]
  %71 = getelementptr ptr, ptr %63, i64 %70
  %72 = load ptr, ptr %71, align 8, !tbaa !35
  %.not.i.i = icmp eq ptr %72, null
  br i1 %.not.i.i, label %Py_XDECREF.exit.i, label %73

73:                                               ; preds = %.lr.ph.i
  %74 = load i32, ptr %72, align 8, !tbaa !42
  %.not.i.i.i = icmp sgt i32 %74, -1
  br i1 %.not.i.i.i, label %75, label %Py_XDECREF.exit.i

75:                                               ; preds = %73
  %76 = add nsw i32 %74, -1
  store i32 %76, ptr %72, align 8, !tbaa !42
  %77 = icmp eq i32 %76, 0
  br i1 %77, label %78, label %Py_XDECREF.exit.i

78:                                               ; preds = %75
  tail call void @_Py_Dealloc(ptr noundef nonnull %72) #13
  br label %Py_XDECREF.exit.i

Py_XDECREF.exit.i:                                ; preds = %78, %75, %73, %.lr.ph.i
  %79 = add nsw i64 %70, -1
  %80 = icmp sgt i64 %70, 0
  br i1 %80, label %.lr.ph.i, label %._crit_edge.i, !llvm.loop !200

._crit_edge.i:                                    ; preds = %Py_XDECREF.exit.i, %65
  tail call void @PyMem_Free(ptr noundef nonnull %63) #13
  br label %_Unpickler_MemoCleanup.exit

_Unpickler_MemoCleanup.exit:                      ; preds = %61, %._crit_edge.i
  %81 = getelementptr inbounds nuw i8, ptr %0, i64 240
  %82 = load ptr, ptr %81, align 8, !tbaa !170
  tail call void @PyMem_Free(ptr noundef %82) #13
  store ptr null, ptr %81, align 8, !tbaa !170
  %83 = getelementptr inbounds nuw i8, ptr %0, i64 152
  %84 = load ptr, ptr %83, align 8, !tbaa !183
  tail call void @PyMem_Free(ptr noundef %84) #13
  store ptr null, ptr %83, align 8, !tbaa !183
  %85 = getelementptr inbounds nuw i8, ptr %0, i64 224
  %86 = load ptr, ptr %85, align 8, !tbaa !59
  tail call void @PyMem_Free(ptr noundef %86) #13
  store ptr null, ptr %85, align 8, !tbaa !59
  %87 = getelementptr inbounds nuw i8, ptr %0, i64 232
  %88 = load ptr, ptr %87, align 8, !tbaa !64
  tail call void @PyMem_Free(ptr noundef %88) #13
  store ptr null, ptr %87, align 8, !tbaa !64
  ret i32 0
}